; ModuleID = '36/728.c'
source_filename = "36/728.c"
target datalayout = "e-m:e-p270:32:32-p271:32:32-p272:64:64-i64:64-f80:128-n8:16:32:64-S128"
target triple = "x86_64-pc-linux-gnu"

@.str = private unnamed_addr constant [5 x i8] c"YES\0A\00", align 1
@.str.1 = private unnamed_addr constant [4 x i8] c"NO\0A\00", align 1

; Function Attrs: noinline nounwind uwtable
define dso_local void @main() #0 {
  %1 = alloca [100 x i8], align 16
  %2 = alloca [100 x i8], align 16
  %3 = alloca [100 x i8], align 16
  %4 = alloca i32, align 4
  %5 = alloca i32, align 4
  %6 = alloca i32, align 4
  %7 = alloca i32, align 4
  %8 = alloca i32, align 4
  %9 = alloca i32, align 4
  %10 = alloca i32, align 4
  %11 = alloca i32, align 4
  %12 = alloca i32, align 4
  store i32 0, i32* %9, align 4
  store i32 0, i32* %11, align 4
  %13 = getelementptr inbounds [100 x i8], [100 x i8]* %1, i64 0, i64 0
  %14 = call i32 (i8*, ...) bitcast (i32 (...)* @gets to i32 (i8*, ...)*)(i8* %13)
  %15 = getelementptr inbounds [100 x i8], [100 x i8]* %1, i64 0, i64 0
  %16 = call i64 @strlen(i8* %15) #3
  %17 = trunc i64 %16 to i32
  store i32 %17, i32* %5, align 4
  store i32 0, i32* %10, align 4
  br label %18

18:                                               ; preds = %28, %0
  %19 = load i32, i32* %10, align 4
  %20 = sext i32 %19 to i64
  %21 = getelementptr inbounds [100 x i8], [100 x i8]* %1, i64 0, i64 %20
  %22 = load i8, i8* %21, align 1
  %23 = sext i8 %22 to i32
  %24 = icmp ne i32 %23, 32
  br i1 %24, label %25, label %31

25:                                               ; preds = %18
  %26 = load i32, i32* %11, align 4
  %27 = add nsw i32 %26, 1
  store i32 %27, i32* %11, align 4
  br label %28

28:                                               ; preds = %25
  %29 = load i32, i32* %10, align 4
  %30 = add nsw i32 %29, 1
  store i32 %30, i32* %10, align 4
  br label %18

31:                                               ; preds = %18
  %32 = load i32, i32* %11, align 4
  %33 = mul nsw i32 2, %32
  %34 = add nsw i32 %33, 1
  store i32 %34, i32* %12, align 4
  %35 = load i32, i32* %5, align 4
  %36 = srem i32 %35, 2
  %37 = icmp eq i32 %36, 1
  br i1 %37, label %38, label %154

38:                                               ; preds = %31
  %39 = load i32, i32* %12, align 4
  %40 = load i32, i32* %5, align 4
  %41 = icmp eq i32 %39, %40
  br i1 %41, label %42, label %154

42:                                               ; preds = %38
  %43 = load i32, i32* %5, align 4
  %44 = sub nsw i32 %43, 1
  %45 = sdiv i32 %44, 2
  store i32 %45, i32* %6, align 4
  store i32 0, i32* %4, align 4
  br label %46

46:                                               ; preds = %58, %42
  %47 = load i32, i32* %4, align 4
  %48 = load i32, i32* %6, align 4
  %49 = icmp slt i32 %47, %48
  br i1 %49, label %50, label %61

50:                                               ; preds = %46
  %51 = load i32, i32* %4, align 4
  %52 = sext i32 %51 to i64
  %53 = getelementptr inbounds [100 x i8], [100 x i8]* %1, i64 0, i64 %52
  %54 = load i8, i8* %53, align 1
  %55 = load i32, i32* %4, align 4
  %56 = sext i32 %55 to i64
  %57 = getelementptr inbounds [100 x i8], [100 x i8]* %2, i64 0, i64 %56
  store i8 %54, i8* %57, align 1
  br label %58

58:                                               ; preds = %50
  %59 = load i32, i32* %4, align 4
  %60 = add nsw i32 %59, 1
  store i32 %60, i32* %4, align 4
  br label %46

61:                                               ; preds = %46
  %62 = load i32, i32* %6, align 4
  %63 = add nsw i32 %62, 1
  store i32 %63, i32* %4, align 4
  br label %64

64:                                               ; preds = %79, %61
  %65 = load i32, i32* %4, align 4
  %66 = load i32, i32* %5, align 4
  %67 = icmp slt i32 %65, %66
  br i1 %67, label %68, label %82

68:                                               ; preds = %64
  %69 = load i32, i32* %4, align 4
  %70 = sext i32 %69 to i64
  %71 = getelementptr inbounds [100 x i8], [100 x i8]* %1, i64 0, i64 %70
  %72 = load i8, i8* %71, align 1
  %73 = load i32, i32* %4, align 4
  %74 = load i32, i32* %6, align 4
  %75 = sub nsw i32 %73, %74
  %76 = sub nsw i32 %75, 1
  %77 = sext i32 %76 to i64
  %78 = getelementptr inbounds [100 x i8], [100 x i8]* %3, i64 0, i64 %77
  store i8 %72, i8* %78, align 1
  br label %79

79:                                               ; preds = %68
  %80 = load i32, i32* %4, align 4
  %81 = add nsw i32 %80, 1
  store i32 %81, i32* %4, align 4
  br label %64

82:                                               ; preds = %64
  store i32 0, i32* %7, align 4
  br label %83

83:                                               ; preds = %116, %82
  %84 = load i32, i32* %7, align 4
  %85 = load i32, i32* %6, align 4
  %86 = icmp slt i32 %84, %85
  br i1 %86, label %87, label %119

87:                                               ; preds = %83
  store i32 0, i32* %8, align 4
  br label %88

88:                                               ; preds = %112, %87
  %89 = load i32, i32* %8, align 4
  %90 = load i32, i32* %6, align 4
  %91 = icmp slt i32 %89, %90
  br i1 %91, label %92, label %115

92:                                               ; preds = %88
  %93 = load i32, i32* %7, align 4
  %94 = sext i32 %93 to i64
  %95 = getelementptr inbounds [100 x i8], [100 x i8]* %2, i64 0, i64 %94
  %96 = load i8, i8* %95, align 1
  %97 = sext i8 %96 to i32
  %98 = load i32, i32* %8, align 4
  %99 = sext i32 %98 to i64
  %100 = getelementptr inbounds [100 x i8], [100 x i8]* %3, i64 0, i64 %99
  %101 = load i8, i8* %100, align 1
  %102 = sext i8 %101 to i32
  %103 = icmp eq i32 %97, %102
  br i1 %103, label %104, label %111

104:                                              ; preds = %92
  %105 = load i32, i32* %7, align 4
  %106 = sext i32 %105 to i64
  %107 = getelementptr inbounds [100 x i8], [100 x i8]* %2, i64 0, i64 %106
  store i8 48, i8* %107, align 1
  %108 = load i32, i32* %8, align 4
  %109 = sext i32 %108 to i64
  %110 = getelementptr inbounds [100 x i8], [100 x i8]* %3, i64 0, i64 %109
  store i8 48, i8* %110, align 1
  br label %111

111:                                              ; preds = %104, %92
  br label %112

112:                                              ; preds = %111
  %113 = load i32, i32* %8, align 4
  %114 = add nsw i32 %113, 1
  store i32 %114, i32* %8, align 4
  br label %88

115:                                              ; preds = %88
  br label %116

116:                                              ; preds = %115
  %117 = load i32, i32* %7, align 4
  %118 = add nsw i32 %117, 1
  store i32 %118, i32* %7, align 4
  br label %83

119:                                              ; preds = %83
  store i32 0, i32* %7, align 4
  br label %120

120:                                              ; preds = %142, %119
  %121 = load i32, i32* %7, align 4
  %122 = load i32, i32* %6, align 4
  %123 = icmp slt i32 %121, %122
  br i1 %123, label %124, label %145

124:                                              ; preds = %120
  %125 = load i32, i32* %7, align 4
  %126 = sext i32 %125 to i64
  %127 = getelementptr inbounds [100 x i8], [100 x i8]* %2, i64 0, i64 %126
  %128 = load i8, i8* %127, align 1
  %129 = sext i8 %128 to i32
  %130 = icmp eq i32 %129, 48
  br i1 %130, label %131, label %140

131:                                              ; preds = %124
  %132 = load i32, i32* %7, align 4
  %133 = sext i32 %132 to i64
  %134 = getelementptr inbounds [100 x i8], [100 x i8]* %3, i64 0, i64 %133
  %135 = load i8, i8* %134, align 1
  %136 = sext i8 %135 to i32
  %137 = icmp eq i32 %136, 48
  br i1 %137, label %138, label %140

138:                                              ; preds = %131
  %139 = load i32, i32* %7, align 4
  store i32 %139, i32* %7, align 4
  br label %141

140:                                              ; preds = %131, %124
  br label %145

141:                                              ; preds = %138
  br label %142

142:                                              ; preds = %141
  %143 = load i32, i32* %7, align 4
  %144 = add nsw i32 %143, 1
  store i32 %144, i32* %7, align 4
  br label %120

145:                                              ; preds = %140, %120
  %146 = load i32, i32* %7, align 4
  %147 = load i32, i32* %6, align 4
  %148 = icmp eq i32 %146, %147
  br i1 %148, label %149, label %151

149:                                              ; preds = %145
  %150 = call i32 (i8*, ...) @printf(i8* getelementptr inbounds ([5 x i8], [5 x i8]* @.str, i64 0, i64 0))
  br label %153

151:                                              ; preds = %145
  %152 = call i32 (i8*, ...) @printf(i8* getelementptr inbounds ([4 x i8], [4 x i8]* @.str.1, i64 0, i64 0))
  br label %153

153:                                              ; preds = %151, %149
  br label %156

154:                                              ; preds = %38, %31
  %155 = call i32 (i8*, ...) @printf(i8* getelementptr inbounds ([4 x i8], [4 x i8]* @.str.1, i64 0, i64 0))
  br label %156

156:                                              ; preds = %154, %153
  ret void
}

declare dso_local i32 @gets(...) #1

; Function Attrs: nounwind readonly
declare dso_local i64 @strlen(i8*) #2

declare dso_local i32 @printf(i8*, ...) #1


!llvm.module.flags = !{!0}
!llvm.ident = !{!1}

!0 = !{i32 1, !"wchar_size", i32 4}
!1 = !{!"clang version 10.0.0-4ubuntu1 "}
